target datalayout = "e-m:e-p270:32:32-p271:32:32-p272:64:64-i64:64-i128:128-f80:128-n8:16:32:64-S128"
target triple = "x86_64-pc-linux-gnu"

%struct.Py_complex = type { double, double }

@sinh_special_values = internal global [7 x [7 x %struct.Py_complex]] zeroinitializer, align 16

; Function Attrs: nounwind uwtable
define internal i32 @special_type(double noundef %0) #0 {
  %2 = alloca i32, align 4
  %3 = alloca double, align 8
  store double %0, ptr %3, align 8, !tbaa !9
  %4 = load double, ptr %3, align 8, !tbaa !9
  %5 = call i1 @llvm.is.fpclass.f64(double %4, i32 504)
  br i1 %5, label %6, label %21

6:                                                ; preds = %1
  %7 = load double, ptr %3, align 8, !tbaa !9
  %8 = fcmp une double %7, 0.000000e+00
  br i1 %8, label %9, label %15

9:                                                ; preds = %6
  %10 = load double, ptr %3, align 8, !tbaa !9
  %11 = call double @llvm.copysign.f64(double 1.000000e+00, double %10)
  %12 = fcmp oeq double %11, 1.000000e+00
  br i1 %12, label %13, label %14

13:                                               ; preds = %9
  store i32 4, ptr %2, align 4
  br label %31

14:                                               ; preds = %9
  store i32 1, ptr %2, align 4
  br label %31

15:                                               ; preds = %6
  %16 = load double, ptr %3, align 8, !tbaa !9
  %17 = call double @llvm.copysign.f64(double 1.000000e+00, double %16)
  %18 = fcmp oeq double %17, 1.000000e+00
  br i1 %18, label %19, label %20

19:                                               ; preds = %15
  store i32 3, ptr %2, align 4
  br label %31

20:                                               ; preds = %15
  store i32 2, ptr %2, align 4
  br label %31

21:                                               ; preds = %1
  %22 = load double, ptr %3, align 8, !tbaa !9
  %23 = call i1 @llvm.is.fpclass.f64(double %22, i32 3)
  br i1 %23, label %24, label %25

24:                                               ; preds = %21
  store i32 6, ptr %2, align 4
  br label %31

25:                                               ; preds = %21
  %26 = load double, ptr %3, align 8, !tbaa !9
  %27 = call double @llvm.copysign.f64(double 1.000000e+00, double %26)
  %28 = fcmp oeq double %27, 1.000000e+00
  br i1 %28, label %29, label %30

29:                                               ; preds = %25
  store i32 5, ptr %2, align 4
  br label %31

30:                                               ; preds = %25
  store i32 0, ptr %2, align 4
  br label %31

31:                                               ; preds = %30, %29, %24, %20, %19, %14, %13
  %32 = load i32, ptr %2, align 4
  ret i32 %32
}

; Function Attrs: nounwind uwtable
define internal { double, double } @cmath_sinh_impl(ptr noundef %0, double %1, double %2) #0 {
  %4 = alloca %struct.Py_complex, align 8
  %5 = alloca %struct.Py_complex, align 8
  %6 = alloca ptr, align 8
  %7 = alloca double, align 8
  %8 = alloca i32, align 4
  %9 = getelementptr inbounds nuw { double, double }, ptr %5, i32 0, i32 0
  store double %1, ptr %9, align 8
  %10 = getelementptr inbounds nuw { double, double }, ptr %5, i32 0, i32 1
  store double %2, ptr %10, align 8
  store ptr %0, ptr %6, align 8, !tbaa !3
  call void @llvm.lifetime.start.p0(i64 8, ptr %7) #8
  %11 = getelementptr inbounds nuw %struct.Py_complex, ptr %5, i32 0, i32 0
  %12 = load double, ptr %11, align 8, !tbaa !17
  %13 = call i1 @llvm.is.fpclass.f64(double %12, i32 504)
  br i1 %13, label %14, label %18

14:                                               ; preds = %3
  %15 = getelementptr inbounds nuw %struct.Py_complex, ptr %5, i32 0, i32 1
  %16 = load double, ptr %15, align 8, !tbaa !19
  %17 = call i1 @llvm.is.fpclass.f64(double %16, i32 504)
  br i1 %17, label %94, label %18

18:                                               ; preds = %14, %3
  %19 = getelementptr inbounds nuw %struct.Py_complex, ptr %5, i32 0, i32 0
  %20 = load double, ptr %19, align 8, !tbaa !17
  %21 = call double @llvm.fabs.f64(double %20) #10
  %22 = fcmp oeq double %21, 0x7FF0000000000000
  %23 = bitcast double %20 to i64
  %24 = icmp slt i64 %23, 0
  %25 = select i1 %24, i32 -1, i32 1
  %26 = select i1 %22, i32 %25, i32 0
  %27 = icmp ne i32 %26, 0
  br i1 %27, label %28, label %64

28:                                               ; preds = %18
  %29 = getelementptr inbounds nuw %struct.Py_complex, ptr %5, i32 0, i32 1
  %30 = load double, ptr %29, align 8, !tbaa !19
  %31 = call i1 @llvm.is.fpclass.f64(double %30, i32 504)
  br i1 %31, label %32, label %64

32:                                               ; preds = %28
  %33 = getelementptr inbounds nuw %struct.Py_complex, ptr %5, i32 0, i32 1
  %34 = load double, ptr %33, align 8, !tbaa !19
  %35 = fcmp une double %34, 0.000000e+00
  br i1 %35, label %36, label %64

36:                                               ; preds = %32
  %37 = getelementptr inbounds nuw %struct.Py_complex, ptr %5, i32 0, i32 0
  %38 = load double, ptr %37, align 8, !tbaa !17
  %39 = fcmp ogt double %38, 0.000000e+00
  br i1 %39, label %40, label %51

40:                                               ; preds = %36
  %41 = getelementptr inbounds nuw %struct.Py_complex, ptr %5, i32 0, i32 1
  %42 = load double, ptr %41, align 8, !tbaa !19
  %43 = call double @cos(double noundef %42) #8, !tbaa !11
  %44 = call double @llvm.copysign.f64(double 0x7FF0000000000000, double %43)
  %45 = getelementptr inbounds nuw %struct.Py_complex, ptr %4, i32 0, i32 0
  store double %44, ptr %45, align 8, !tbaa !17
  %46 = getelementptr inbounds nuw %struct.Py_complex, ptr %5, i32 0, i32 1
  %47 = load double, ptr %46, align 8, !tbaa !19
  %48 = call double @sin(double noundef %47) #8, !tbaa !11
  %49 = call double @llvm.copysign.f64(double 0x7FF0000000000000, double %48)
  %50 = getelementptr inbounds nuw %struct.Py_complex, ptr %4, i32 0, i32 1
  store double %49, ptr %50, align 8, !tbaa !19
  br label %63

51:                                               ; preds = %36
  %52 = getelementptr inbounds nuw %struct.Py_complex, ptr %5, i32 0, i32 1
  %53 = load double, ptr %52, align 8, !tbaa !19
  %54 = call double @cos(double noundef %53) #8, !tbaa !11
  %55 = call double @llvm.copysign.f64(double 0x7FF0000000000000, double %54)
  %56 = fneg double %55
  %57 = getelementptr inbounds nuw %struct.Py_complex, ptr %4, i32 0, i32 0
  store double %56, ptr %57, align 8, !tbaa !17
  %58 = getelementptr inbounds nuw %struct.Py_complex, ptr %5, i32 0, i32 1
  %59 = load double, ptr %58, align 8, !tbaa !19
  %60 = call double @sin(double noundef %59) #8, !tbaa !11
  %61 = call double @llvm.copysign.f64(double 0x7FF0000000000000, double %60)
  %62 = getelementptr inbounds nuw %struct.Py_complex, ptr %4, i32 0, i32 1
  store double %61, ptr %62, align 8, !tbaa !19
  br label %63

63:                                               ; preds = %51, %40
  br label %75

64:                                               ; preds = %32, %28, %18
  %65 = getelementptr inbounds nuw %struct.Py_complex, ptr %5, i32 0, i32 0
  %66 = load double, ptr %65, align 8, !tbaa !17
  %67 = call i32 @special_type(double noundef %66)
  %68 = zext i32 %67 to i64
  %69 = getelementptr [7 x [7 x %struct.Py_complex]], ptr @sinh_special_values, i64 0, i64 %68
  %70 = getelementptr inbounds nuw %struct.Py_complex, ptr %5, i32 0, i32 1
  %71 = load double, ptr %70, align 8, !tbaa !19
  %72 = call i32 @special_type(double noundef %71)
  %73 = zext i32 %72 to i64
  %74 = getelementptr [7 x %struct.Py_complex], ptr %69, i64 0, i64 %73
  call void @llvm.memcpy.p0.p0.i64(ptr align 8 %4, ptr align 16 %74, i64 16, i1 false), !tbaa.struct !8
  br label %75

75:                                               ; preds = %64, %63
  %76 = getelementptr inbounds nuw %struct.Py_complex, ptr %5, i32 0, i32 1
  %77 = load double, ptr %76, align 8, !tbaa !19
  %78 = call double @llvm.fabs.f64(double %77) #10
  %79 = fcmp oeq double %78, 0x7FF0000000000000
  %80 = bitcast double %77 to i64
  %81 = icmp slt i64 %80, 0
  %82 = select i1 %81, i32 -1, i32 1
  %83 = select i1 %79, i32 %82, i32 0
  %84 = icmp ne i32 %83, 0
  br i1 %84, label %85, label %91

85:                                               ; preds = %75
  %86 = getelementptr inbounds nuw %struct.Py_complex, ptr %5, i32 0, i32 0
  %87 = load double, ptr %86, align 8, !tbaa !17
  %88 = call i1 @llvm.is.fpclass.f64(double %87, i32 3)
  br i1 %88, label %91, label %89

89:                                               ; preds = %85
  %90 = call ptr @__errno_location() #9
  store i32 33, ptr %90, align 4, !tbaa !11
  br label %93

91:                                               ; preds = %85, %75
  %92 = call ptr @__errno_location() #9
  store i32 0, ptr %92, align 4, !tbaa !11
  br label %93

93:                                               ; preds = %91, %89
  store i32 1, ptr %8, align 4
  br label %165

94:                                               ; preds = %14
  %95 = getelementptr inbounds nuw %struct.Py_complex, ptr %5, i32 0, i32 0
  %96 = load double, ptr %95, align 8, !tbaa !17
  %97 = call double @llvm.fabs.f64(double %96)
  %98 = call double @log(double noundef 0x7FCFFFFFFFFFFFFF) #8, !tbaa !11
  %99 = fcmp ogt double %97, %98
  br i1 %99, label %100, label %123

100:                                              ; preds = %94
  %101 = getelementptr inbounds nuw %struct.Py_complex, ptr %5, i32 0, i32 0
  %102 = load double, ptr %101, align 8, !tbaa !17
  %103 = getelementptr inbounds nuw %struct.Py_complex, ptr %5, i32 0, i32 0
  %104 = load double, ptr %103, align 8, !tbaa !17
  %105 = call double @llvm.copysign.f64(double 1.000000e+00, double %104)
  %106 = fsub double %102, %105
  store double %106, ptr %7, align 8, !tbaa !9
  %107 = getelementptr inbounds nuw %struct.Py_complex, ptr %5, i32 0, i32 1
  %108 = load double, ptr %107, align 8, !tbaa !19
  %109 = call double @cos(double noundef %108) #8, !tbaa !11
  %110 = load double, ptr %7, align 8, !tbaa !9
  %111 = call double @sinh(double noundef %110) #8, !tbaa !11
  %112 = fmul double %109, %111
  %113 = fmul double %112, 0x4005BF0A8B145769
  %114 = getelementptr inbounds nuw %struct.Py_complex, ptr %4, i32 0, i32 0
  store double %113, ptr %114, align 8, !tbaa !17
  %115 = getelementptr inbounds nuw %struct.Py_complex, ptr %5, i32 0, i32 1
  %116 = load double, ptr %115, align 8, !tbaa !19
  %117 = call double @sin(double noundef %116) #8, !tbaa !11
  %118 = load double, ptr %7, align 8, !tbaa !9
  %119 = call double @cosh(double noundef %118) #8, !tbaa !11
  %120 = fmul double %117, %119
  %121 = fmul double %120, 0x4005BF0A8B145769
  %122 = getelementptr inbounds nuw %struct.Py_complex, ptr %4, i32 0, i32 1
  store double %121, ptr %122, align 8, !tbaa !19
  br label %140

123:                                              ; preds = %94
  %124 = getelementptr inbounds nuw %struct.Py_complex, ptr %5, i32 0, i32 1
  %125 = load double, ptr %124, align 8, !tbaa !19
  %126 = call double @cos(double noundef %125) #8, !tbaa !11
  %127 = getelementptr inbounds nuw %struct.Py_complex, ptr %5, i32 0, i32 0
  %128 = load double, ptr %127, align 8, !tbaa !17
  %129 = call double @sinh(double noundef %128) #8, !tbaa !11
  %130 = fmul double %126, %129
  %131 = getelementptr inbounds nuw %struct.Py_complex, ptr %4, i32 0, i32 0
  store double %130, ptr %131, align 8, !tbaa !17
  %132 = getelementptr inbounds nuw %struct.Py_complex, ptr %5, i32 0, i32 1
  %133 = load double, ptr %132, align 8, !tbaa !19
  %134 = call double @sin(double noundef %133) #8, !tbaa !11
  %135 = getelementptr inbounds nuw %struct.Py_complex, ptr %5, i32 0, i32 0
  %136 = load double, ptr %135, align 8, !tbaa !17
  %137 = call double @cosh(double noundef %136) #8, !tbaa !11
  %138 = fmul double %134, %137
  %139 = getelementptr inbounds nuw %struct.Py_complex, ptr %4, i32 0, i32 1
  store double %138, ptr %139, align 8, !tbaa !19
  br label %140

140:                                              ; preds = %123, %100
  %141 = getelementptr inbounds nuw %struct.Py_complex, ptr %4, i32 0, i32 0
  %142 = load double, ptr %141, align 8, !tbaa !17
  %143 = call double @llvm.fabs.f64(double %142) #10
  %144 = fcmp oeq double %143, 0x7FF0000000000000
  %145 = bitcast double %142 to i64
  %146 = icmp slt i64 %145, 0
  %147 = select i1 %146, i32 -1, i32 1
  %148 = select i1 %144, i32 %147, i32 0
  %149 = icmp ne i32 %148, 0
  br i1 %149, label %160, label %150

150:                                              ; preds = %140
  %151 = getelementptr inbounds nuw %struct.Py_complex, ptr %4, i32 0, i32 1
  %152 = load double, ptr %151, align 8, !tbaa !19
  %153 = call double @llvm.fabs.f64(double %152) #10
  %154 = fcmp oeq double %153, 0x7FF0000000000000
  %155 = bitcast double %152 to i64
  %156 = icmp slt i64 %155, 0
  %157 = select i1 %156, i32 -1, i32 1
  %158 = select i1 %154, i32 %157, i32 0
  %159 = icmp ne i32 %158, 0
  br i1 %159, label %160, label %162

160:                                              ; preds = %150, %140
  %161 = call ptr @__errno_location() #9
  store i32 34, ptr %161, align 4, !tbaa !11
  br label %164

162:                                              ; preds = %150
  %163 = call ptr @__errno_location() #9
  store i32 0, ptr %163, align 4, !tbaa !11
  br label %164

164:                                              ; preds = %162, %160
  store i32 1, ptr %8, align 4
  br label %165

165:                                              ; preds = %164, %93
  call void @llvm.lifetime.end.p0(i64 8, ptr %7) #8
  %166 = load { double, double }, ptr %4, align 8
  ret { double, double } %166
}