; Function Attrs: mustprogress nofree nounwind willreturn memory(readwrite, argmem: write, inaccessiblemem: write) uwtable
define internal fastcc { double, double } @cmath_sinh_impl(double %0, double %1) unnamed_addr #8 {
  %3 = tail call double @llvm.fabs.f64(double %0)
  %4 = fcmp ueq double %3, 0x7FF0000000000000
  %5 = tail call double @llvm.fabs.f64(double %1)
  %6 = fcmp ueq double %5, 0x7FF0000000000000
  %or.cond27 = select i1 %4, i1 true, i1 %6
  br i1 %or.cond27, label %7, label %52

7:                                                ; preds = %2
  %8 = fcmp oeq double %3, 0x7FF0000000000000
  br i1 %8, label %9, label %22

9:                                                ; preds = %7
  %or.cond = tail call i1 @llvm.is.fpclass.f64(double %1, i32 408)
  br i1 %or.cond, label %10, label %22

10:                                               ; preds = %9
  %11 = fcmp ogt double %0, 0.000000e+00
  %12 = tail call double @cos(double noundef %1) #11, !tbaa !3
  br i1 %11, label %13, label %17

13:                                               ; preds = %10
  %14 = tail call double @llvm.copysign.f64(double 0x7FF0000000000000, double %12)
  %15 = tail call double @sin(double noundef %1) #11, !tbaa !3
  %16 = tail call double @llvm.copysign.f64(double 0x7FF0000000000000, double %15)
  br label %46

17:                                               ; preds = %10
  %18 = fneg double %12
  %19 = tail call double @llvm.copysign.f64(double 0x7FF0000000000000, double %18)
  %20 = tail call double @sin(double noundef %1) #11, !tbaa !3
  %21 = tail call double @llvm.copysign.f64(double 0x7FF0000000000000, double %20)
  br label %46

22:                                               ; preds = %9, %7
  br i1 %4, label %29, label %23

23:                                               ; preds = %22
  %24 = fcmp une double %0, 0.000000e+00
  %25 = tail call double @llvm.copysign.f64(double 1.000000e+00, double %0)
  %26 = fcmp oeq double %25, 1.000000e+00
  br i1 %24, label %27, label %28

27:                                               ; preds = %23
  %..i = select i1 %26, i64 4, i64 1
  br label %special_type.exit

28:                                               ; preds = %23
  %.7.i = select i1 %26, i64 3, i64 2
  br label %special_type.exit

29:                                               ; preds = %22
  %30 = fcmp uno double %0, 0.000000e+00
  br i1 %30, label %special_type.exit, label %31

31:                                               ; preds = %29
  %32 = tail call double @llvm.copysign.f64(double 1.000000e+00, double %0)
  %33 = fcmp oeq double %32, 1.000000e+00
  %.8.i = select i1 %33, i64 5, i64 0
  br label %special_type.exit

special_type.exit:                                ; preds = %27, %28, %29, %31
  %.0.i = phi i64 [ %..i, %27 ], [ %.7.i, %28 ], [ 6, %29 ], [ %.8.i, %31 ]
  br i1 %6, label %40, label %34

34:                                               ; preds = %special_type.exit
  %35 = fcmp une double %1, 0.000000e+00
  %36 = tail call double @llvm.copysign.f64(double 1.000000e+00, double %1)
  %37 = fcmp oeq double %36, 1.000000e+00
  br i1 %35, label %38, label %39

38:                                               ; preds = %34
  %..i33 = select i1 %37, i64 4, i64 1
  br label %special_type.exit35

39:                                               ; preds = %34
  %.7.i31 = select i1 %37, i64 3, i64 2
  br label %special_type.exit35

40:                                               ; preds = %special_type.exit
  %41 = fcmp uno double %1, 0.000000e+00
  br i1 %41, label %special_type.exit35, label %42

42:                                               ; preds = %40
  %43 = tail call double @llvm.copysign.f64(double 1.000000e+00, double %1)
  %44 = fcmp oeq double %43, 1.000000e+00
  %.8.i34 = select i1 %44, i64 5, i64 0
  br label %special_type.exit35

special_type.exit35:                              ; preds = %38, %39, %40, %42
  %.0.i32 = phi i64 [ %..i33, %38 ], [ %.7.i31, %39 ], [ 6, %40 ], [ %.8.i34, %42 ]
  %45 = getelementptr [7 x [7 x %struct.Py_complex]], ptr @sinh_special_values, i64 0, i64 %.0.i, i64 %.0.i32
  %.sroa.025.0.copyload = load double, ptr %45, align 16, !tbaa !7
  %.sroa.7.0..sroa_idx = getelementptr inbounds nuw i8, ptr %45, i64 8
  %.sroa.7.0.copyload = load double, ptr %.sroa.7.0..sroa_idx, align 8, !tbaa !7
  br label %46

46:                                               ; preds = %13, %17, %special_type.exit35
  %.sroa.025.0 = phi double [ %14, %13 ], [ %19, %17 ], [ %.sroa.025.0.copyload, %special_type.exit35 ]
  %.sroa.7.0 = phi double [ %16, %13 ], [ %21, %17 ], [ %.sroa.7.0.copyload, %special_type.exit35 ]
  %47 = fcmp une double %5, 0x7FF0000000000000
  %48 = fcmp uno double %0, 0.000000e+00
  %or.cond28 = select i1 %47, i1 true, i1 %48
  %49 = tail call ptr @__errno_location() #12
  br i1 %or.cond28, label %51, label %50

50:                                               ; preds = %46
  store i32 33, ptr %49, align 4, !tbaa !3
  br label %80

51:                                               ; preds = %46
  store i32 0, ptr %49, align 4, !tbaa !3
  br label %80

52:                                               ; preds = %2
  %53 = fcmp ogt double %3, 0x4086232BDD7ABCD2
  br i1 %53, label %54, label %65

54:                                               ; preds = %52
  %55 = tail call double @llvm.copysign.f64(double 1.000000e+00, double %0)
  %56 = fsub double %0, %55
  %57 = tail call double @cos(double noundef %1) #11, !tbaa !3
  %58 = tail call double @sinh(double noundef %56) #11, !tbaa !3
  %59 = fmul double %57, %58
  %60 = fmul double %59, 0x4005BF0A8B145769
  %61 = tail call double @sin(double noundef %1) #11, !tbaa !3
  %62 = tail call double @cosh(double noundef %56) #11, !tbaa !3
  %63 = fmul double %61, %62
  %64 = fmul double %63, 0x4005BF0A8B145769
  br label %72

65:                                               ; preds = %52
  %66 = tail call double @cos(double noundef %1) #11, !tbaa !3
  %67 = tail call double @sinh(double noundef %0) #11, !tbaa !3
  %68 = fmul double %66, %67
  %69 = tail call double @sin(double noundef %1) #11, !tbaa !3
  %70 = tail call double @cosh(double noundef %0) #11, !tbaa !3
  %71 = fmul double %69, %70
  br label %72

72:                                               ; preds = %65, %54
  %.sroa.025.2 = phi double [ %60, %54 ], [ %68, %65 ]
  %.sroa.7.2 = phi double [ %64, %54 ], [ %71, %65 ]
  %73 = tail call double @llvm.fabs.f64(double %.sroa.025.2) #13
  %74 = fcmp oeq double %73, 0x7FF0000000000000
  %75 = tail call double @llvm.fabs.f64(double %.sroa.7.2) #13
  %76 = fcmp oeq double %75, 0x7FF0000000000000
  %or.cond30 = select i1 %74, i1 true, i1 %76
  %77 = tail call ptr @__errno_location() #12
  br i1 %or.cond30, label %78, label %79

78:                                               ; preds = %72
  store i32 34, ptr %77, align 4, !tbaa !3
  br label %80

79:                                               ; preds = %72
  store i32 0, ptr %77, align 4, !tbaa !3
  br label %80

80:                                               ; preds = %78, %79, %50, %51
  %.sroa.025.1 = phi double [ %.sroa.025.0, %51 ], [ %.sroa.025.0, %50 ], [ %.sroa.025.2, %79 ], [ %.sroa.025.2, %78 ]
  %.sroa.7.1 = phi double [ %.sroa.7.0, %51 ], [ %.sroa.7.0, %50 ], [ %.sroa.7.2, %79 ], [ %.sroa.7.2, %78 ]
  %.fca.0.insert = insertvalue { double, double } poison, double %.sroa.025.1, 0
  %.fca.1.insert = insertvalue { double, double } %.fca.0.insert, double %.sroa.7.1, 1
  ret { double, double } %.fca.1.insert
}